; ModuleID = 'bench/jq/original/regsyntax.ll'
source_filename = "bench/jq/original/regsyntax.ll"
target datalayout = "e-m:e-p270:32:32-p271:32:32-p272:64:64-i64:64-i128:128-f80:128-n8:16:32:64-S128"
target triple = "x86_64-pc-linux-gnu"

%struct.OnigSyntaxType = type { i32, i32, i32, i32, %struct.OnigMetaCharTableType }
%struct.OnigMetaCharTableType = type { i32, i32, i32, i32, i32, i32 }

@OnigSyntaxASIS = dso_local local_unnamed_addr global %struct.OnigSyntaxType { i32 0, i32 1048576, i32 0, i32 0, %struct.OnigMetaCharTableType { i32 92, i32 0, i32 0, i32 0, i32 0, i32 0 } }, align 4
@OnigSyntaxPosixBasic = dso_local local_unnamed_addr global %struct.OnigSyntaxType { i32 92480006, i32 0, i32 16384, i32 12, %struct.OnigMetaCharTableType { i32 92, i32 0, i32 0, i32 0, i32 0, i32 0 } }, align 4
@OnigSyntaxPosixExtended = dso_local local_unnamed_addr global %struct.OnigSyntaxType { i32 92476758, i32 0, i32 -2139095033, i32 12, %struct.OnigMetaCharTableType { i32 92, i32 0, i32 0, i32 0, i32 0, i32 0 } }, align 4
@OnigSyntaxEmacs = dso_local local_unnamed_addr global %struct.OnigSyntaxType { i32 75704918, i32 32768, i32 4194304, i32 0, %struct.OnigMetaCharTableType { i32 92, i32 0, i32 0, i32 0, i32 0, i32 0 } }, align 4
@OnigSyntaxGrep = dso_local local_unnamed_addr global %struct.OnigSyntaxType { i32 27208358, i32 0, i32 5259264, i32 0, %struct.OnigMetaCharTableType { i32 92, i32 0, i32 0, i32 0, i32 0, i32 0 } }, align 4
@OnigSyntaxGnuRegex = dso_local local_unnamed_addr global %struct.OnigSyntaxType { i32 33543510, i32 0, i32 -2136997877, i32 0, %struct.OnigMetaCharTableType { i32 92, i32 0, i32 0, i32 0, i32 0, i32 0 } }, align 4
@OnigSyntaxJava = dso_local local_unnamed_addr global %struct.OnigSyntaxType { i32 1073206614, i32 90231, i32 -2136994741, i32 8, %struct.OnigMetaCharTableType { i32 92, i32 0, i32 0, i32 0, i32 0, i32 0 } }, align 4
@OnigSyntaxPerl = dso_local local_unnamed_addr global %struct.OnigSyntaxType { i32 -535210, i32 937623607, i32 -2136996853, i32 8, %struct.OnigMetaCharTableType { i32 92, i32 0, i32 0, i32 0, i32 0, i32 0 } }, align 4
@OnigSyntaxPerl_NG = dso_local local_unnamed_addr global %struct.OnigSyntaxType { i32 -535210, i32 1071842231, i32 -2136996469, i32 8, %struct.OnigMetaCharTableType { i32 92, i32 0, i32 0, i32 0, i32 0, i32 0 } }, align 4
@OnigSyntaxPython = dso_local local_unnamed_addr global %struct.OnigSyntaxType { i32 1073206614, i32 -1604100090, i32 -2136992741, i32 8, %struct.OnigMetaCharTableType { i32 92, i32 0, i32 0, i32 0, i32 0, i32 0 } }, align 4
@OnigSyntaxOniguruma = external global %struct.OnigSyntaxType, align 4
@OnigDefaultSyntax = external local_unnamed_addr global ptr, align 8

; Function Attrs: mustprogress nofree norecurse nosync nounwind willreturn memory(write, argmem: none, inaccessiblemem: none) uwtable
define dso_local noundef i32 @onig_set_default_syntax(ptr noundef %0) local_unnamed_addr #0 {
  %2 = icmp eq ptr %0, null
  %spec.store.select = select i1 %2, ptr @OnigSyntaxOniguruma, ptr %0
  store ptr %spec.store.select, ptr @OnigDefaultSyntax, align 8, !tbaa !4
  ret i32 0
}

; Function Attrs: mustprogress nofree norecurse nosync nounwind willreturn memory(argmem: readwrite) uwtable
define dso_local void @onig_copy_syntax(ptr noundef writeonly captures(none) initializes((0, 40)) %0, ptr noundef readonly captures(none) %1) local_unnamed_addr #1 {
  tail call void @llvm.memcpy.p0.p0.i64(ptr noundef nonnull align 4 dereferenceable(40) %0, ptr noundef nonnull align 4 dereferenceable(40) %1, i64 40, i1 false), !tbaa.struct !8
  ret void
}

; Function Attrs: mustprogress nocallback nofree nounwind willreturn memory(argmem: readwrite)
declare void @llvm.memcpy.p0.p0.i64(ptr noalias writeonly captures(none), ptr noalias readonly captures(none), i64, i1 immarg) #2

; Function Attrs: mustprogress nofree norecurse nosync nounwind willreturn memory(argmem: write) uwtable
define dso_local void @onig_set_syntax_op(ptr noundef writeonly captures(none) initializes((0, 4)) %0, i32 noundef %1) local_unnamed_addr #3 {
  store i32 %1, ptr %0, align 4, !tbaa !11
  ret void
}

; Function Attrs: mustprogress nofree norecurse nosync nounwind willreturn memory(argmem: write) uwtable
define dso_local void @onig_set_syntax_op2(ptr noundef writeonly captures(none) initializes((4, 8)) %0, i32 noundef %1) local_unnamed_addr #3 {
  %3 = getelementptr inbounds nuw i8, ptr %0, i64 4
  store i32 %1, ptr %3, align 4, !tbaa !14
  ret void
}

; Function Attrs: mustprogress nofree norecurse nosync nounwind willreturn memory(argmem: write) uwtable
define dso_local void @onig_set_syntax_behavior(ptr noundef writeonly captures(none) initializes((8, 12)) %0, i32 noundef %1) local_unnamed_addr #3 {
  %3 = getelementptr inbounds nuw i8, ptr %0, i64 8
  store i32 %1, ptr %3, align 4, !tbaa !15
  ret void
}

; Function Attrs: mustprogress nofree norecurse nosync nounwind willreturn memory(argmem: write) uwtable
define dso_local void @onig_set_syntax_options(ptr noundef writeonly captures(none) initializes((12, 16)) %0, i32 noundef %1) local_unnamed_addr #3 {
  %3 = getelementptr inbounds nuw i8, ptr %0, i64 12
  store i32 %1, ptr %3, align 4, !tbaa !16
  ret void
}

; Function Attrs: mustprogress nofree norecurse nosync nounwind willreturn memory(argmem: read) uwtable
define dso_local i32 @onig_get_syntax_op(ptr noundef readonly captures(none) %0) local_unnamed_addr #4 {
  %2 = load i32, ptr %0, align 4, !tbaa !11
  ret i32 %2
}

; Function Attrs: mustprogress nofree norecurse nosync nounwind willreturn memory(argmem: read) uwtable
define dso_local i32 @onig_get_syntax_op2(ptr noundef readonly captures(none) %0) local_unnamed_addr #4 {
  %2 = getelementptr inbounds nuw i8, ptr %0, i64 4
  %3 = load i32, ptr %2, align 4, !tbaa !14
  ret i32 %3
}

; Function Attrs: mustprogress nofree norecurse nosync nounwind willreturn memory(argmem: read) uwtable
define dso_local i32 @onig_get_syntax_behavior(ptr noundef readonly captures(none) %0) local_unnamed_addr #4 {
  %2 = getelementptr inbounds nuw i8, ptr %0, i64 8
  %3 = load i32, ptr %2, align 4, !tbaa !15
  ret i32 %3
}

; Function Attrs: mustprogress nofree norecurse nosync nounwind willreturn memory(argmem: read) uwtable
define dso_local i32 @onig_get_syntax_options(ptr noundef readonly captures(none) %0) local_unnamed_addr #4 {
  %2 = getelementptr inbounds nuw i8, ptr %0, i64 12
  %3 = load i32, ptr %2, align 4, !tbaa !16
  ret i32 %3
}

; Function Attrs: mustprogress nofree norecurse nosync nounwind willreturn memory(argmem: write) uwtable
define dso_local range(i32 -30, 1) i32 @onig_set_meta_char(ptr noundef writeonly captures(none) %0, i32 noundef %1, i32 noundef %2) local_unnamed_addr #3 {
  %4 = icmp ult i32 %1, 6
  br i1 %4, label %switch.lookup, label %9

switch.lookup:                                    ; preds = %3
  %5 = shl nuw nsw i32 %1, 2
  %6 = zext nneg i32 %5 to i64
  %7 = getelementptr inbounds nuw i8, ptr %0, i64 %6
  %8 = getelementptr inbounds nuw i8, ptr %7, i64 16
  store i32 %2, ptr %8, align 4, !tbaa !9
  br label %9

9:                                                ; preds = %3, %switch.lookup
  %.0 = phi i32 [ -30, %3 ], [ 0, %switch.lookup ]
  ret i32 %.0
}


!llvm.module.flags = !{!0, !1, !2, !3}

!0 = !{i32 1, !"wchar_size", i32 4}
!1 = !{i32 8, !"PIC Level", i32 2}
!2 = !{i32 7, !"PIE Level", i32 2}
!3 = !{i32 7, !"uwtable", i32 2}
!4 = !{!5, !5, i64 0}
!5 = !{!"any pointer", !6, i64 0}
!6 = !{!"omnipotent char", !7, i64 0}
!7 = !{!"Simple C/C++ TBAA"}
!8 = !{i64 0, i64 4, !9, i64 4, i64 4, !9, i64 8, i64 4, !9, i64 12, i64 4, !9, i64 16, i64 4, !9, i64 20, i64 4, !9, i64 24, i64 4, !9, i64 28, i64 4, !9, i64 32, i64 4, !9, i64 36, i64 4, !9}
!9 = !{!10, !10, i64 0}
!10 = !{!"int", !6, i64 0}
!11 = !{!12, !10, i64 0}
!12 = !{!"", !10, i64 0, !10, i64 4, !10, i64 8, !10, i64 12, !13, i64 16}
!13 = !{!"", !10, i64 0, !10, i64 4, !10, i64 8, !10, i64 12, !10, i64 16, !10, i64 20}
!14 = !{!12, !10, i64 4}
!15 = !{!12, !10, i64 8}
!16 = !{!12, !10, i64 12}
